target datalayout = "e-m:e-p270:32:32-p271:32:32-p272:64:64-i64:64-i128:128-f80:128-n8:16:32:64-S128"
target triple = "x86_64-pc-linux-gnu"

; Function Attrs: nounwind uwtable
define internal i32 @pg_gbk_mblen(ptr noundef %0) #1 {
  %2 = alloca ptr, align 8
  %3 = alloca i32, align 4
  store ptr %0, ptr %2, align 8
  call void @llvm.lifetime.start.p0(i64 4, ptr %3) #7
  %4 = load ptr, ptr %2, align 8
  %5 = load i8, ptr %4, align 1
  %6 = zext i8 %5 to i32
  %7 = and i32 %6, 128
  %8 = icmp ne i32 %7, 0
  br i1 %8, label %9, label %10

9:                                                ; preds = %1
  store i32 2, ptr %3, align 4
  br label %11

10:                                               ; preds = %1
  store i32 1, ptr %3, align 4
  br label %11

11:                                               ; preds = %10, %9
  %12 = load i32, ptr %3, align 4
  call void @llvm.lifetime.end.p0(i64 4, ptr %3) #7
  ret i32 %12
}

; Function Attrs: nounwind uwtable
define internal i32 @pg_gbk_verifychar(ptr noundef %0, i32 noundef %1) #1 {
  %3 = alloca i32, align 4
  %4 = alloca ptr, align 8
  %5 = alloca i32, align 4
  %6 = alloca i32, align 4
  %7 = alloca i32, align 4
  %8 = alloca i32, align 4
  store ptr %0, ptr %4, align 8
  store i32 %1, ptr %5, align 4
  call void @llvm.lifetime.start.p0(i64 4, ptr %6) #7
  call void @llvm.lifetime.start.p0(i64 4, ptr %7) #7
  %9 = load ptr, ptr %4, align 8
  %10 = call i32 @pg_gbk_mblen(ptr noundef %9)
  store i32 %10, ptr %7, align 4
  store i32 %10, ptr %6, align 4
  %11 = load i32, ptr %5, align 4
  %12 = load i32, ptr %6, align 4
  %13 = icmp slt i32 %11, %12
  br i1 %13, label %14, label %15

14:                                               ; preds = %2
  store i32 -1, ptr %3, align 4
  store i32 1, ptr %8, align 4
  br label %46

15:                                               ; preds = %2
  %16 = load i32, ptr %6, align 4
  %17 = icmp eq i32 %16, 2
  br i1 %17, label %18, label %31

18:                                               ; preds = %15
  %19 = load ptr, ptr %4, align 8
  %20 = getelementptr inbounds i8, ptr %19, i64 0
  %21 = load i8, ptr %20, align 1
  %22 = zext i8 %21 to i32
  %23 = icmp eq i32 %22, 141
  br i1 %23, label %24, label %31

24:                                               ; preds = %18
  %25 = load ptr, ptr %4, align 8
  %26 = getelementptr inbounds i8, ptr %25, i64 1
  %27 = load i8, ptr %26, align 1
  %28 = zext i8 %27 to i32
  %29 = icmp eq i32 %28, 32
  br i1 %29, label %30, label %31

30:                                               ; preds = %24
  store i32 -1, ptr %3, align 4
  store i32 1, ptr %8, align 4
  br label %46

31:                                               ; preds = %24, %18, %15
  br label %32

32:                                               ; preds = %43, %31
  %33 = load i32, ptr %6, align 4
  %34 = add i32 %33, -1
  store i32 %34, ptr %6, align 4
  %35 = icmp sgt i32 %34, 0
  br i1 %35, label %36, label %44

36:                                               ; preds = %32
  %37 = load ptr, ptr %4, align 8
  %38 = getelementptr inbounds nuw i8, ptr %37, i32 1
  store ptr %38, ptr %4, align 8
  %39 = load i8, ptr %38, align 1
  %40 = zext i8 %39 to i32
  %41 = icmp eq i32 %40, 0
  br i1 %41, label %42, label %43

42:                                               ; preds = %36
  store i32 -1, ptr %3, align 4
  store i32 1, ptr %8, align 4
  br label %46

43:                                               ; preds = %36
  br label %32, !llvm.loop !26

44:                                               ; preds = %32
  %45 = load i32, ptr %7, align 4
  store i32 %45, ptr %3, align 4
  store i32 1, ptr %8, align 4
  br label %46

46:                                               ; preds = %44, %42, %30, %14
  call void @llvm.lifetime.end.p0(i64 4, ptr %7) #7
  call void @llvm.lifetime.end.p0(i64 4, ptr %6) #7
  %47 = load i32, ptr %3, align 4
  ret i32 %47
}